target datalayout = "e-m:e-p270:32:32-p271:32:32-p272:64:64-i64:64-i128:128-f80:128-n8:16:32:64-S128"
target triple = "x86_64-pc-linux-gnu"

@procHandle = internal global ptr null, align 8
@.str.2 = private unnamed_addr constant [33 x i8] c"NULL filename for native library\00", align 1
@__const.findJniFunction.onLoadSymbols = private unnamed_addr constant [1 x ptr] [ptr @.str.8], align 8
@__const.findJniFunction.onUnloadSymbols = private unnamed_addr constant [1 x ptr] [ptr @.str.9], align 8

; Function Attrs: nounwind uwtable
define internal ptr @findJniFunction(ptr noundef %0, ptr noundef %1, ptr noundef %2, i8 noundef zeroext %3) #0 {
  %5 = alloca ptr, align 8
  %6 = alloca ptr, align 8
  %7 = alloca ptr, align 8
  %8 = alloca i8, align 1
  %9 = alloca [1 x ptr], align 8
  %10 = alloca [1 x ptr], align 8
  %11 = alloca ptr, align 8
  %12 = alloca i32, align 4
  %13 = alloca ptr, align 8
  %14 = alloca ptr, align 8
  %15 = alloca i32, align 4
  %16 = alloca i64, align 8
  store ptr %0, ptr %5, align 8
  store ptr %1, ptr %6, align 8
  store ptr %2, ptr %7, align 8
  store i8 %3, ptr %8, align 1
  call void @llvm.memcpy.p0.p0.i64(ptr align 8 %9, ptr align 8 @__const.findJniFunction.onLoadSymbols, i64 8, i1 false)
  call void @llvm.memcpy.p0.p0.i64(ptr align 8 %10, ptr align 8 @__const.findJniFunction.onUnloadSymbols, i64 8, i1 false)
  store ptr null, ptr %13, align 8
  %17 = load i8, ptr %8, align 1
  %18 = icmp ne i8 %17, 0
  br i1 %18, label %19, label %21

19:                                               ; preds = %4
  %20 = getelementptr inbounds [1 x ptr], ptr %9, i64 0, i64 0
  store ptr %20, ptr %11, align 8
  store i32 1, ptr %12, align 4
  br label %23

21:                                               ; preds = %4
  %22 = getelementptr inbounds [1 x ptr], ptr %10, i64 0, i64 0
  store ptr %22, ptr %11, align 8
  store i32 1, ptr %12, align 4
  br label %23

23:                                               ; preds = %21, %19
  store i32 0, ptr %15, align 4
  br label %24

24:                                               ; preds = %70, %23
  %25 = load i32, ptr %15, align 4
  %26 = load i32, ptr %12, align 4
  %27 = icmp slt i32 %25, %26
  br i1 %27, label %28, label %73

28:                                               ; preds = %24
  %29 = load ptr, ptr %7, align 8
  %30 = icmp ne ptr %29, null
  br i1 %30, label %31, label %34

31:                                               ; preds = %28
  %32 = load ptr, ptr %7, align 8
  %33 = call i64 @strlen(ptr noundef %32) #6
  br label %35

34:                                               ; preds = %28
  br label %35

35:                                               ; preds = %34, %31
  %36 = phi i64 [ %33, %31 ], [ 0, %34 ]
  %37 = load ptr, ptr %11, align 8
  %38 = load i32, ptr %15, align 4
  %39 = sext i32 %38 to i64
  %40 = getelementptr inbounds ptr, ptr %37, i64 %39
  %41 = load ptr, ptr %40, align 8
  %42 = call i64 @strlen(ptr noundef %41) #6
  %43 = add i64 %36, %42
  %44 = add i64 %43, 2
  store i64 %44, ptr %16, align 8
  %45 = icmp ugt i64 %44, 4096
  br i1 %45, label %46, label %47

46:                                               ; preds = %35
  br label %74

47:                                               ; preds = %35
  %48 = load i64, ptr %16, align 8
  %49 = call noalias ptr @malloc(i64 noundef %48) #7
  store ptr %49, ptr %14, align 8
  %50 = load ptr, ptr %14, align 8
  %51 = icmp eq ptr %50, null
  br i1 %51, label %52, label %54

52:                                               ; preds = %47
  %53 = load ptr, ptr %5, align 8
  call void @JNU_ThrowOutOfMemoryError(ptr noundef %53, ptr noundef null)
  br label %74

54:                                               ; preds = %47
  %55 = load ptr, ptr %11, align 8
  %56 = load i32, ptr %15, align 4
  %57 = sext i32 %56 to i64
  %58 = getelementptr inbounds ptr, ptr %55, i64 %57
  %59 = load ptr, ptr %58, align 8
  %60 = load ptr, ptr %7, align 8
  %61 = load ptr, ptr %14, align 8
  call void @buildJniFunctionName(ptr noundef %59, ptr noundef %60, ptr noundef %61)
  %62 = load ptr, ptr %6, align 8
  %63 = load ptr, ptr %14, align 8
  %64 = call ptr @JVM_FindLibraryEntry(ptr noundef %62, ptr noundef %63)
  store ptr %64, ptr %13, align 8
  %65 = load ptr, ptr %14, align 8
  call void @free(ptr noundef %65) #8
  %66 = load ptr, ptr %13, align 8
  %67 = icmp ne ptr %66, null
  br i1 %67, label %68, label %69

68:                                               ; preds = %54
  br label %73

69:                                               ; preds = %54
  br label %70

70:                                               ; preds = %69
  %71 = load i32, ptr %15, align 4
  %72 = add nsw i32 %71, 1
  store i32 %72, ptr %15, align 4
  br label %24, !llvm.loop !6

73:                                               ; preds = %68, %24
  br label %74

74:                                               ; preds = %73, %52, %46
  %75 = load ptr, ptr %13, align 8
  ret ptr %75
}

; Function Attrs: nounwind uwtable
define ptr @Java_jdk_internal_loader_NativeLibraries_findBuiltinLib(ptr noundef %0, ptr noundef %1, ptr noundef %2) #0 {
  %4 = alloca ptr, align 8
  %5 = alloca ptr, align 8
  %6 = alloca ptr, align 8
  %7 = alloca ptr, align 8
  %8 = alloca ptr, align 8
  %9 = alloca ptr, align 8
  %10 = alloca i64, align 8
  %11 = alloca i64, align 8
  %12 = alloca i64, align 8
  %13 = alloca ptr, align 8
  %14 = alloca ptr, align 8
  store ptr %0, ptr %5, align 8
  store ptr %1, ptr %6, align 8
  store ptr %2, ptr %7, align 8
  store i64 3, ptr %10, align 8
  store i64 3, ptr %11, align 8
  %15 = load ptr, ptr %7, align 8
  %16 = icmp eq ptr %15, null
  br i1 %16, label %17, label %19

17:                                               ; preds = %3
  %18 = load ptr, ptr %5, align 8
  call void @JNU_ThrowInternalError(ptr noundef %18, ptr noundef @.str.2)
  store ptr null, ptr %4, align 8
  br label %84

19:                                               ; preds = %3
  %20 = call ptr (...) @getProcessHandle()
  store ptr %20, ptr @procHandle, align 8
  %21 = load ptr, ptr %5, align 8
  %22 = load ptr, ptr %7, align 8
  %23 = call ptr @JNU_GetStringPlatformChars(ptr noundef %21, ptr noundef %22, ptr noundef null)
  store ptr %23, ptr %8, align 8
  %24 = load ptr, ptr %8, align 8
  %25 = icmp eq ptr %24, null
  br i1 %25, label %26, label %27

26:                                               ; preds = %19
  store ptr null, ptr %4, align 8
  br label %84

27:                                               ; preds = %19
  %28 = load ptr, ptr %8, align 8
  %29 = call i64 @strlen(ptr noundef %28) #6
  store i64 %29, ptr %12, align 8
  %30 = load i64, ptr %12, align 8
  %31 = load i64, ptr %10, align 8
  %32 = load i64, ptr %11, align 8
  %33 = add i64 %31, %32
  %34 = icmp ule i64 %30, %33
  br i1 %34, label %35, label %39

35:                                               ; preds = %27
  %36 = load ptr, ptr %5, align 8
  %37 = load ptr, ptr %7, align 8
  %38 = load ptr, ptr %8, align 8
  call void @JNU_ReleaseStringPlatformChars(ptr noundef %36, ptr noundef %37, ptr noundef %38)
  store ptr null, ptr %4, align 8
  br label %84

39:                                               ; preds = %27
  %40 = load i64, ptr %12, align 8
  %41 = add i64 %40, 1
  %42 = call noalias ptr @malloc(i64 noundef %41) #7
  store ptr %42, ptr %9, align 8
  %43 = load ptr, ptr %9, align 8
  %44 = icmp eq ptr %43, null
  br i1 %44, label %45, label %50

45:                                               ; preds = %39
  %46 = load ptr, ptr %5, align 8
  %47 = load ptr, ptr %7, align 8
  %48 = load ptr, ptr %8, align 8
  call void @JNU_ReleaseStringPlatformChars(ptr noundef %46, ptr noundef %47, ptr noundef %48)
  %49 = load ptr, ptr %5, align 8
  call void @JNU_ThrowOutOfMemoryError(ptr noundef %49, ptr noundef null)
  store ptr null, ptr %4, align 8
  br label %84

50:                                               ; preds = %39
  %51 = load i64, ptr %12, align 8
  %52 = load i64, ptr %10, align 8
  %53 = icmp ugt i64 %51, %52
  br i1 %53, label %54, label %60

54:                                               ; preds = %50
  %55 = load ptr, ptr %9, align 8
  %56 = load ptr, ptr %8, align 8
  %57 = load i64, ptr %10, align 8
  %58 = getelementptr inbounds i8, ptr %56, i64 %57
  %59 = call ptr @strcpy(ptr noundef %55, ptr noundef %58) #8
  br label %60

60:                                               ; preds = %54, %50
  %61 = load ptr, ptr %5, align 8
  %62 = load ptr, ptr %7, align 8
  %63 = load ptr, ptr %8, align 8
  call void @JNU_ReleaseStringPlatformChars(ptr noundef %61, ptr noundef %62, ptr noundef %63)
  %64 = load ptr, ptr %9, align 8
  %65 = load ptr, ptr %9, align 8
  %66 = call i64 @strlen(ptr noundef %65) #6
  %67 = load i64, ptr %11, align 8
  %68 = sub i64 %66, %67
  %69 = getelementptr inbounds i8, ptr %64, i64 %68
  store i8 0, ptr %69, align 1
  %70 = load ptr, ptr %5, align 8
  %71 = load ptr, ptr @procHandle, align 8
  %72 = load ptr, ptr %9, align 8
  %73 = call ptr @findJniFunction(ptr noundef %70, ptr noundef %71, ptr noundef %72, i8 noundef zeroext 1)
  store ptr %73, ptr %14, align 8
  %74 = load ptr, ptr %14, align 8
  %75 = icmp ne ptr %74, null
  br i1 %75, label %76, label %82

76:                                               ; preds = %60
  %77 = load ptr, ptr %5, align 8
  %78 = load ptr, ptr %9, align 8
  %79 = call ptr @JNU_NewStringPlatform(ptr noundef %77, ptr noundef %78)
  store ptr %79, ptr %13, align 8
  %80 = load ptr, ptr %9, align 8
  call void @free(ptr noundef %80) #8
  %81 = load ptr, ptr %13, align 8
  store ptr %81, ptr %4, align 8
  br label %84

82:                                               ; preds = %60
  %83 = load ptr, ptr %9, align 8
  call void @free(ptr noundef %83) #8
  store ptr null, ptr %4, align 8
  br label %84

84:                                               ; preds = %82, %76, %45, %35, %26, %17
  %85 = load ptr, ptr %4, align 8
  ret ptr %85
}