; Function Attrs: nounwind uwtable
define ptr @Java_jdk_internal_loader_NativeLibraries_findBuiltinLib(ptr noundef %0, ptr nocapture noundef readnone %1, ptr noundef %2) local_unnamed_addr #0 {
  %4 = icmp eq ptr %2, null
  br i1 %4, label %5, label %6

5:                                                ; preds = %3
  tail call void @JNU_ThrowInternalError(ptr noundef %0, ptr noundef nonnull @.str.2) #6
  br label %36

6:                                                ; preds = %3
  %7 = tail call ptr (...) @getProcessHandle() #6
  store ptr %7, ptr @procHandle, align 8
  %8 = tail call ptr @JNU_GetStringPlatformChars(ptr noundef %0, ptr noundef nonnull %2, ptr noundef null) #6
  %9 = icmp eq ptr %8, null
  br i1 %9, label %36, label %10

10:                                               ; preds = %6
  %11 = tail call i64 @strlen(ptr noundef nonnull dereferenceable(1) %8) #7
  %12 = icmp ult i64 %11, 7
  br i1 %12, label %13, label %14

13:                                               ; preds = %10
  tail call void @JNU_ReleaseStringPlatformChars(ptr noundef %0, ptr noundef nonnull %2, ptr noundef nonnull %8) #6
  br label %36

14:                                               ; preds = %10
  %15 = add i64 %11, 1
  %16 = tail call noalias ptr @malloc(i64 noundef %15) #8
  %17 = icmp eq ptr %16, null
  br i1 %17, label %18, label %19

18:                                               ; preds = %14
  tail call void @JNU_ReleaseStringPlatformChars(ptr noundef %0, ptr noundef nonnull %2, ptr noundef nonnull %8) #6
  tail call void @JNU_ThrowOutOfMemoryError(ptr noundef %0, ptr noundef null) #6
  br label %36

19:                                               ; preds = %14
  %20 = getelementptr inbounds i8, ptr %8, i64 3
  %21 = tail call ptr @strcpy(ptr noundef nonnull dereferenceable(1) %16, ptr noundef nonnull dereferenceable(1) %20) #6
  tail call void @JNU_ReleaseStringPlatformChars(ptr noundef %0, ptr noundef nonnull %2, ptr noundef nonnull %8) #6
  %22 = tail call i64 @strlen(ptr noundef nonnull dereferenceable(1) %16) #7
  %23 = getelementptr i8, ptr %16, i64 %22
  %24 = getelementptr i8, ptr %23, i64 -3
  store i8 0, ptr %24, align 1
  %25 = load ptr, ptr @procHandle, align 8
  %26 = tail call i64 @strlen(ptr noundef nonnull dereferenceable(1) %16) #7
  %27 = add i64 %26, 12
  %28 = icmp ugt i64 %27, 4096
  br i1 %28, label %findJniFunction.exit.thread, label %29

29:                                               ; preds = %19
  %30 = tail call noalias ptr @malloc(i64 noundef %27) #8
  %31 = icmp eq ptr %30, null
  br i1 %31, label %32, label %findJniFunction.exit

32:                                               ; preds = %29
  tail call void @JNU_ThrowOutOfMemoryError(ptr noundef %0, ptr noundef null) #6
  br label %findJniFunction.exit.thread

findJniFunction.exit:                             ; preds = %29
  tail call void @buildJniFunctionName(ptr noundef nonnull @.str.8, ptr noundef nonnull %16, ptr noundef nonnull %30) #6
  %33 = tail call ptr @JVM_FindLibraryEntry(ptr noundef %25, ptr noundef nonnull %30) #6
  tail call void @free(ptr noundef nonnull %30) #6
  %.not = icmp eq ptr %33, null
  br i1 %.not, label %findJniFunction.exit.thread, label %34

34:                                               ; preds = %findJniFunction.exit
  %35 = tail call ptr @JNU_NewStringPlatform(ptr noundef %0, ptr noundef nonnull %16) #6
  tail call void @free(ptr noundef nonnull %16) #6
  br label %36

findJniFunction.exit.thread:                      ; preds = %32, %19, %findJniFunction.exit
  tail call void @free(ptr noundef nonnull %16) #6
  br label %36

36:                                               ; preds = %6, %findJniFunction.exit.thread, %34, %18, %13, %5
  %.0 = phi ptr [ null, %5 ], [ null, %13 ], [ null, %18 ], [ %35, %34 ], [ null, %findJniFunction.exit.thread ], [ null, %6 ]
  ret ptr %.0
}